target datalayout = "e-m:e-p270:32:32-p271:32:32-p272:64:64-i64:64-i128:128-f80:128-n8:16:32:64-S128"
target triple = "x86_64-pc-linux-gnu"

%struct.SResource = type { ptr, i8, i8, i32, i32, i32, i32, i32, ptr, %struct.UString }
%struct.UString = type { ptr, i32, i32 }
%class.ContainerResource = type { %struct.SResource, i32, ptr }

; Function Attrs: mustprogress nounwind uwtable
define internal noundef zeroext i8 @_ZL11calcPaddingj(i32 noundef %0) #4 {
  %2 = alloca i32, align 4
  store i32 %0, ptr %2, align 4, !tbaa !23
  %3 = load i32, ptr %2, align 4, !tbaa !23
  %4 = zext i32 %3 to i64
  %5 = urem i64 %4, 4
  %6 = icmp ne i64 %5, 0
  br i1 %6, label %7, label %12

7:                                                ; preds = %1
  %8 = load i32, ptr %2, align 4, !tbaa !23
  %9 = zext i32 %8 to i64
  %10 = urem i64 %9, 4
  %11 = sub i64 4, %10
  br label %13

12:                                               ; preds = %1
  br label %13

13:                                               ; preds = %12, %7
  %14 = phi i64 [ %11, %7 ], [ 0, %12 ]
  %15 = trunc i64 %14 to i8
  ret i8 %15
}

; Function Attrs: mustprogress uwtable
define dso_local void @_ZN9SResource5writeEP14UNewDataMemoryPj(ptr noundef nonnull align 8 dereferenceable(56) %0, ptr noundef %1, ptr noundef %2) #5 align 2 {
  %4 = alloca ptr, align 8
  %5 = alloca ptr, align 8
  %6 = alloca ptr, align 8
  %7 = alloca i8, align 1
  store ptr %0, ptr %4, align 8, !tbaa !24
  store ptr %1, ptr %5, align 8, !tbaa !132
  store ptr %2, ptr %6, align 8, !tbaa !96
  %8 = load ptr, ptr %4, align 8
  %9 = getelementptr inbounds nuw %struct.SResource, ptr %8, i32 0, i32 2
  %10 = load i8, ptr %9, align 1, !tbaa !32
  %11 = icmp ne i8 %10, 0
  br i1 %11, label %12, label %13

12:                                               ; preds = %3
  br label %36

13:                                               ; preds = %3
  %14 = load ptr, ptr %5, align 8, !tbaa !132
  %15 = load ptr, ptr %6, align 8, !tbaa !96
  %16 = load ptr, ptr %8, align 8, !tbaa !26
  %17 = getelementptr inbounds ptr, ptr %16, i64 5
  %18 = load ptr, ptr %17, align 8
  call void %18(ptr noundef nonnull align 8 dereferenceable(56) %8, ptr noundef %14, ptr noundef %15)
  call void @llvm.lifetime.start.p0(i64 1, ptr %7) #3
  %19 = load ptr, ptr %6, align 8, !tbaa !96
  %20 = load i32, ptr %19, align 4, !tbaa !23
  %21 = call noundef zeroext i8 @_ZL11calcPaddingj(i32 noundef %20)
  store i8 %21, ptr %7, align 1, !tbaa !22
  %22 = load i8, ptr %7, align 1, !tbaa !22
  %23 = zext i8 %22 to i32
  %24 = icmp sgt i32 %23, 0
  br i1 %24, label %25, label %34

25:                                               ; preds = %13
  %26 = load ptr, ptr %5, align 8, !tbaa !132
  %27 = load i8, ptr %7, align 1, !tbaa !22
  %28 = zext i8 %27 to i32
  call void @udata_writePadding(ptr noundef %26, i32 noundef %28)
  %29 = load i8, ptr %7, align 1, !tbaa !22
  %30 = zext i8 %29 to i32
  %31 = load ptr, ptr %6, align 8, !tbaa !96
  %32 = load i32, ptr %31, align 4, !tbaa !23
  %33 = add i32 %32, %30
  store i32 %33, ptr %31, align 4, !tbaa !23
  br label %34

34:                                               ; preds = %25, %13
  %35 = getelementptr inbounds nuw %struct.SResource, ptr %8, i32 0, i32 2
  store i8 1, ptr %35, align 1, !tbaa !32
  call void @llvm.lifetime.end.p0(i64 1, ptr %7) #3
  br label %36

36:                                               ; preds = %34, %12
  ret void
}

; Function Attrs: mustprogress uwtable
define dso_local void @_ZN17ContainerResource11writeAllResEP14UNewDataMemoryPj(ptr noundef nonnull align 8 dereferenceable(72) %0, ptr noundef %1, ptr noundef %2) #5 align 2 {
  %4 = alloca ptr, align 8
  %5 = alloca ptr, align 8
  %6 = alloca ptr, align 8
  %7 = alloca i32, align 4
  %8 = alloca ptr, align 8
  store ptr %0, ptr %4, align 8, !tbaa !53
  store ptr %1, ptr %5, align 8, !tbaa !132
  store ptr %2, ptr %6, align 8, !tbaa !96
  %9 = load ptr, ptr %4, align 8
  call void @llvm.lifetime.start.p0(i64 4, ptr %7) #3
  store i32 0, ptr %7, align 4, !tbaa !23
  call void @llvm.lifetime.start.p0(i64 8, ptr %8) #3
  %10 = getelementptr inbounds nuw %class.ContainerResource, ptr %9, i32 0, i32 2
  %11 = load ptr, ptr %10, align 8, !tbaa !55
  store ptr %11, ptr %8, align 8, !tbaa !24
  br label %12

12:                                               ; preds = %20, %3
  %13 = load ptr, ptr %8, align 8, !tbaa !24
  %14 = icmp ne ptr %13, null
  br i1 %14, label %16, label %15

15:                                               ; preds = %12
  call void @llvm.lifetime.end.p0(i64 8, ptr %8) #3
  br label %26

16:                                               ; preds = %12
  %17 = load ptr, ptr %8, align 8, !tbaa !24
  %18 = load ptr, ptr %5, align 8, !tbaa !132
  %19 = load ptr, ptr %6, align 8, !tbaa !96
  call void @_ZN9SResource5writeEP14UNewDataMemoryPj(ptr noundef nonnull align 8 dereferenceable(56) %17, ptr noundef %18, ptr noundef %19)
  br label %20

20:                                               ; preds = %16
  %21 = load i32, ptr %7, align 4, !tbaa !23
  %22 = add i32 %21, 1
  store i32 %22, ptr %7, align 4, !tbaa !23
  %23 = load ptr, ptr %8, align 8, !tbaa !24
  %24 = getelementptr inbounds nuw %struct.SResource, ptr %23, i32 0, i32 8
  %25 = load ptr, ptr %24, align 8, !tbaa !38
  store ptr %25, ptr %8, align 8, !tbaa !24
  br label %12, !llvm.loop !134

26:                                               ; preds = %15
  call void @llvm.lifetime.end.p0(i64 4, ptr %7) #3
  ret void
}