; Function Attrs: mustprogress uwtable
define dso_local void @_ZN17ContainerResource11writeAllResEP14UNewDataMemoryPj(ptr noundef nonnull readonly align 8 captures(none) dereferenceable(72) %0, ptr noundef %1, ptr noundef %2) local_unnamed_addr #7 align 2 {
  %4 = getelementptr inbounds nuw i8, ptr %0, i64 64
  %.07 = load ptr, ptr %4, align 8, !tbaa !74
  %.not8 = icmp eq ptr %.07, null
  br i1 %.not8, label %._crit_edge, label %.lr.ph

._crit_edge:                                      ; preds = %_ZN9SResource5writeEP14UNewDataMemoryPj.exit, %3
  ret void

.lr.ph:                                           ; preds = %3, %_ZN9SResource5writeEP14UNewDataMemoryPj.exit
  %.09 = phi ptr [ %.0, %_ZN9SResource5writeEP14UNewDataMemoryPj.exit ], [ %.07, %3 ]
  %5 = getelementptr inbounds nuw i8, ptr %.09, i64 9
  %6 = load i8, ptr %5, align 1, !tbaa !17
  %.not.i = icmp eq i8 %6, 0
  br i1 %.not.i, label %7, label %_ZN9SResource5writeEP14UNewDataMemoryPj.exit

7:                                                ; preds = %.lr.ph
  %8 = load ptr, ptr %.09, align 8, !tbaa !9
  %9 = getelementptr inbounds nuw i8, ptr %8, i64 40
  %10 = load ptr, ptr %9, align 8
  tail call void %10(ptr noundef nonnull align 8 dereferenceable(56) %.09, ptr noundef %1, ptr noundef %2)
  %11 = load i32, ptr %2, align 4, !tbaa !7
  %12 = and i32 %11, 3
  %.not.i.i = icmp eq i32 %12, 0
  br i1 %.not.i.i, label %17, label %13

13:                                               ; preds = %7
  %14 = sub nuw nsw i32 4, %12
  tail call void @udata_writePadding(ptr noundef %1, i32 noundef %14)
  %15 = load i32, ptr %2, align 4, !tbaa !7
  %16 = add i32 %15, %14
  store i32 %16, ptr %2, align 4, !tbaa !7
  br label %17

17:                                               ; preds = %13, %7
  store i8 1, ptr %5, align 1, !tbaa !17
  br label %_ZN9SResource5writeEP14UNewDataMemoryPj.exit

_ZN9SResource5writeEP14UNewDataMemoryPj.exit:     ; preds = %.lr.ph, %17
  %18 = getelementptr inbounds nuw i8, ptr %.09, i64 32
  %.0 = load ptr, ptr %18, align 8, !tbaa !74
  %.not = icmp eq ptr %.0, null
  br i1 %.not, label %._crit_edge, label %.lr.ph, !llvm.loop !95
}